; ModuleID = '7/658.c'
source_filename = "7/658.c"
target datalayout = "e-m:e-p270:32:32-p271:32:32-p272:64:64-i64:64-f80:128-n8:16:32:64-S128"
target triple = "x86_64-pc-linux-gnu"

@.str = private unnamed_addr constant [3 x i8] c"%s\00", align 1
@.str.1 = private unnamed_addr constant [3 x i8] c"%c\00", align 1

; Function Attrs: noinline nounwind uwtable
define dso_local i32 @main() #0 {
  %1 = alloca i32, align 4
  %2 = alloca [30000 x i8], align 16
  %3 = alloca [30000 x i8], align 16
  %4 = alloca [30000 x i8], align 16
  %5 = alloca i32, align 4
  %6 = alloca i32, align 4
  %7 = alloca i32, align 4
  %8 = alloca i32, align 4
  %9 = alloca i32, align 4
  store i32 0, i32* %1, align 4
  store i32 1, i32* %5, align 4
  store i32 0, i32* %6, align 4
  %10 = getelementptr inbounds [30000 x i8], [30000 x i8]* %2, i64 0, i64 0
  %11 = call i32 (i8*, ...) bitcast (i32 (...)* @gets to i32 (i8*, ...)*)(i8* %10)
  %12 = getelementptr inbounds [30000 x i8], [30000 x i8]* %3, i64 0, i64 0
  %13 = call i32 (i8*, ...) bitcast (i32 (...)* @gets to i32 (i8*, ...)*)(i8* %12)
  %14 = getelementptr inbounds [30000 x i8], [30000 x i8]* %4, i64 0, i64 0
  %15 = call i32 (i8*, ...) bitcast (i32 (...)* @gets to i32 (i8*, ...)*)(i8* %14)
  store i32 0, i32* %7, align 4
  br label %16

16:                                               ; preds = %82, %0
  %17 = load i32, i32* %7, align 4
  %18 = sext i32 %17 to i64
  %19 = getelementptr inbounds [30000 x i8], [30000 x i8]* %2, i64 0, i64 0
  %20 = call i64 @strlen(i8* %19) #3
  %21 = icmp ult i64 %18, %20
  br i1 %21, label %22, label %85

22:                                               ; preds = %16
  %23 = load i32, i32* %7, align 4
  %24 = sext i32 %23 to i64
  %25 = getelementptr inbounds [30000 x i8], [30000 x i8]* %2, i64 0, i64 %24
  %26 = load i8, i8* %25, align 1
  %27 = sext i8 %26 to i32
  %28 = getelementptr inbounds [30000 x i8], [30000 x i8]* %3, i64 0, i64 0
  %29 = load i8, i8* %28, align 16
  %30 = sext i8 %29 to i32
  %31 = icmp eq i32 %27, %30
  br i1 %31, label %32, label %59

32:                                               ; preds = %22
  store i32 2, i32* %5, align 4
  store i32 0, i32* %8, align 4
  br label %33

33:                                               ; preds = %55, %32
  %34 = load i32, i32* %8, align 4
  %35 = sext i32 %34 to i64
  %36 = getelementptr inbounds [30000 x i8], [30000 x i8]* %3, i64 0, i64 0
  %37 = call i64 @strlen(i8* %36) #3
  %38 = icmp ult i64 %35, %37
  br i1 %38, label %39, label %58

39:                                               ; preds = %33
  %40 = load i32, i32* %7, align 4
  %41 = load i32, i32* %8, align 4
  %42 = add nsw i32 %40, %41
  %43 = sext i32 %42 to i64
  %44 = getelementptr inbounds [30000 x i8], [30000 x i8]* %2, i64 0, i64 %43
  %45 = load i8, i8* %44, align 1
  %46 = sext i8 %45 to i32
  %47 = load i32, i32* %8, align 4
  %48 = sext i32 %47 to i64
  %49 = getelementptr inbounds [30000 x i8], [30000 x i8]* %3, i64 0, i64 %48
  %50 = load i8, i8* %49, align 1
  %51 = sext i8 %50 to i32
  %52 = icmp ne i32 %46, %51
  br i1 %52, label %53, label %54

53:                                               ; preds = %39
  store i32 0, i32* %5, align 4
  br label %58

54:                                               ; preds = %39
  br label %55

55:                                               ; preds = %54
  %56 = load i32, i32* %8, align 4
  %57 = add nsw i32 %56, 1
  store i32 %57, i32* %8, align 4
  br label %33

58:                                               ; preds = %53, %33
  br label %59

59:                                               ; preds = %58, %22
  %60 = load i32, i32* %5, align 4
  %61 = icmp eq i32 %60, 2
  br i1 %61, label %62, label %71

62:                                               ; preds = %59
  %63 = getelementptr inbounds [30000 x i8], [30000 x i8]* %4, i64 0, i64 0
  %64 = call i32 (i8*, ...) @printf(i8* getelementptr inbounds ([3 x i8], [3 x i8]* @.str, i64 0, i64 0), i8* %63)
  %65 = load i32, i32* %7, align 4
  %66 = sext i32 %65 to i64
  %67 = getelementptr inbounds [30000 x i8], [30000 x i8]* %3, i64 0, i64 0
  %68 = call i64 @strlen(i8* %67) #3
  %69 = add i64 %66, %68
  %70 = trunc i64 %69 to i32
  store i32 %70, i32* %6, align 4
  br label %85

71:                                               ; preds = %59
  %72 = load i32, i32* %5, align 4
  %73 = icmp ne i32 %72, 2
  br i1 %73, label %74, label %81

74:                                               ; preds = %71
  %75 = load i32, i32* %7, align 4
  %76 = sext i32 %75 to i64
  %77 = getelementptr inbounds [30000 x i8], [30000 x i8]* %2, i64 0, i64 %76
  %78 = load i8, i8* %77, align 1
  %79 = sext i8 %78 to i32
  %80 = call i32 (i8*, ...) @printf(i8* getelementptr inbounds ([3 x i8], [3 x i8]* @.str.1, i64 0, i64 0), i32 %79)
  br label %81

81:                                               ; preds = %74, %71
  br label %82

82:                                               ; preds = %81
  %83 = load i32, i32* %7, align 4
  %84 = add nsw i32 %83, 1
  store i32 %84, i32* %7, align 4
  br label %16

85:                                               ; preds = %62, %16
  %86 = load i32, i32* %5, align 4
  %87 = icmp eq i32 %86, 2
  br i1 %87, label %88, label %107

88:                                               ; preds = %85
  %89 = load i32, i32* %6, align 4
  store i32 %89, i32* %9, align 4
  br label %90

90:                                               ; preds = %103, %88
  %91 = load i32, i32* %9, align 4
  %92 = sext i32 %91 to i64
  %93 = getelementptr inbounds [30000 x i8], [30000 x i8]* %2, i64 0, i64 0
  %94 = call i64 @strlen(i8* %93) #3
  %95 = icmp ult i64 %92, %94
  br i1 %95, label %96, label %106

96:                                               ; preds = %90
  %97 = load i32, i32* %9, align 4
  %98 = sext i32 %97 to i64
  %99 = getelementptr inbounds [30000 x i8], [30000 x i8]* %2, i64 0, i64 %98
  %100 = load i8, i8* %99, align 1
  %101 = sext i8 %100 to i32
  %102 = call i32 (i8*, ...) @printf(i8* getelementptr inbounds ([3 x i8], [3 x i8]* @.str.1, i64 0, i64 0), i32 %101)
  br label %103

103:                                              ; preds = %96
  %104 = load i32, i32* %9, align 4
  %105 = add nsw i32 %104, 1
  store i32 %105, i32* %9, align 4
  br label %90

106:                                              ; preds = %90
  br label %107

107:                                              ; preds = %106, %85
  ret i32 0
}

declare dso_local i32 @gets(...) #1

; Function Attrs: nounwind readonly
declare dso_local i64 @strlen(i8*) #2

declare dso_local i32 @printf(i8*, ...) #1


!llvm.module.flags = !{!0}
!llvm.ident = !{!1}

!0 = !{i32 1, !"wchar_size", i32 4}
!1 = !{!"clang version 10.0.0-4ubuntu1 "}
